target datalayout = "e-m:e-p270:32:32-p271:32:32-p272:64:64-i64:64-i128:128-f80:128-n8:16:32:64-S128"
target triple = "x86_64-pc-linux-gnu"

%union.pthread_mutex_t = type { %struct.__pthread_mutex_s }
%struct.__pthread_mutex_s = type { i32, i32, i32, i32, i32, i16, i16, %struct.__pthread_internal_list }
%struct.__pthread_internal_list = type { ptr, ptr }
%struct.job_record = type { i32, ptr, ptr, ptr, ptr, i16, i32, i32, i32, ptr, i32, ptr, ptr, i16, ptr, double, i64, ptr, ptr, ptr, ptr, ptr, ptr, i32, ptr, i32, i64, i64, i32, i32, ptr, i16, i64, i64, i8, i32, ptr, ptr, ptr, ptr, ptr, ptr, ptr, ptr, i32, ptr, ptr, i32, ptr, i32, ptr, i32, ptr, i32, ptr, ptr, ptr, ptr, ptr, ptr, i32, i16, i64, ptr, ptr, ptr, ptr, %struct.acct_policy_limit_set_t, i16, ptr, ptr, ptr, ptr, ptr, i32, ptr, ptr, ptr, ptr, ptr, i32, i32, ptr, ptr, ptr, i16, ptr, ptr, i8, ptr, ptr, i64, i64, i8, i32, i32, i8, i32, ptr, i32, i64, i32, ptr, ptr, ptr, i8, i16, i64, i32, ptr, ptr, ptr, ptr, ptr, i16, i32, ptr, ptr, ptr, ptr, i32, ptr, i32, i16, i64, ptr, i32, i32, ptr, i64, ptr, ptr, i64, i32, i32, i64, i32, i32, ptr, ptr, ptr, ptr, ptr, ptr, ptr, ptr, ptr, ptr, ptr, ptr, i32, ptr, i16, i16, i16, i16, ptr, i32, i32, i8, i64 }
%struct.acct_policy_limit_set_t = type { i16, i16, ptr }
%struct.slurmdb_federation_rec_t = type { ptr, i32, ptr }
%struct.slurmdb_cluster_rec = type { ptr, i16, i64, %struct.sockaddr_storage, ptr, i32, i16, ptr, i16, %struct.slurmdb_cluster_fed_t, i32, %union.pthread_mutex_t, ptr, ptr, ptr, i16, ptr, ptr }
%struct.sockaddr_storage = type { i16, [118 x i8], i64 }
%struct.slurmdb_cluster_fed_t = type { ptr, i32, ptr, ptr, ptr, i32, i8, i8 }
%struct.slurm_msg = type { %struct.sockaddr_storage, ptr, i32, i32, i32, i8, i32, i8, i32, ptr, ptr, i32, ptr, ptr, i16, i8, i16, i16, %struct.forward, ptr, %struct.sockaddr_storage, ptr }
%struct.forward = type { %struct.slurm_node_alias_addrs_t, i16, i16, ptr, i32, i16, i16 }
%struct.slurm_node_alias_addrs_t = type { i64, ptr, ptr, i32, ptr }
%struct.sib_msg_t = type { i32, ptr, ptr, i32, i16, i16, i64, i32, i32, i32, i32, i64, ptr, i32, i16, ptr, i16, i32 }

@fed_mgr_fed_rec = dso_local global ptr null, align 8
@fed_mgr_cluster_rec = dso_local global ptr null, align 8

; Function Attrs: nounwind uwtable
define internal i32 @_persist_fed_job_lock_bool(ptr noundef %0, i32 noundef %1, i32 noundef %2, i1 noundef zeroext %3) #0 {
  %5 = alloca ptr, align 8
  %6 = alloca i32, align 4
  %7 = alloca i32, align 4
  %8 = alloca i8, align 1
  %9 = alloca i32, align 4
  %10 = alloca %struct.slurm_msg, align 8
  %11 = alloca %struct.slurm_msg, align 8
  %12 = alloca %struct.sib_msg_t, align 8
  store ptr %0, ptr %5, align 8
  store i32 %1, ptr %6, align 4
  store i32 %2, ptr %7, align 4
  %13 = zext i1 %3 to i8
  store i8 %13, ptr %8, align 1
  call void @llvm.lifetime.start.p0(i64 4, ptr %9) #9
  call void @llvm.lifetime.start.p0(i64 424, ptr %10) #9
  call void @llvm.lifetime.start.p0(i64 424, ptr %11) #9
  call void @slurm_msg_t_init(ptr noundef %10)
  call void @llvm.lifetime.start.p0(i64 96, ptr %12) #9
  call void @llvm.memset.p0.i64(ptr align 8 %12, i8 0, i64 96, i1 false)
  %14 = load i32, ptr %6, align 4
  %15 = getelementptr inbounds nuw %struct.sib_msg_t, ptr %12, i32 0, i32 8
  store i32 %14, ptr %15, align 4
  %16 = load i32, ptr %7, align 4
  %17 = getelementptr inbounds nuw %struct.sib_msg_t, ptr %12, i32 0, i32 0
  store i32 %16, ptr %17, align 8
  %18 = load i8, ptr %8, align 1, !range !11, !noundef !12
  %19 = trunc i8 %18 to i1
  br i1 %19, label %20, label %22

20:                                               ; preds = %4
  %21 = getelementptr inbounds nuw %struct.slurm_msg, ptr %10, i32 0, i32 16
  store i16 4503, ptr %21, align 4
  br label %24

22:                                               ; preds = %4
  %23 = getelementptr inbounds nuw %struct.slurm_msg, ptr %10, i32 0, i32 16
  store i16 4504, ptr %23, align 4
  br label %24

24:                                               ; preds = %22, %20
  %25 = load ptr, ptr %5, align 8
  %26 = getelementptr inbounds nuw %struct.slurmdb_cluster_rec, ptr %25, i32 0, i32 15
  %27 = load i16, ptr %26, align 8
  %28 = getelementptr inbounds nuw %struct.slurm_msg, ptr %10, i32 0, i32 17
  store i16 %27, ptr %28, align 2
  %29 = getelementptr inbounds nuw %struct.slurm_msg, ptr %10, i32 0, i32 13
  store ptr %12, ptr %29, align 8
  %30 = load ptr, ptr %5, align 8
  %31 = call i32 @_send_recv_msg(ptr noundef %30, ptr noundef %10, ptr noundef %11, i1 noundef zeroext false)
  %32 = icmp ne i32 %31, 0
  br i1 %32, label %33, label %34

33:                                               ; preds = %24
  store i32 -1, ptr %9, align 4
  br label %53

34:                                               ; preds = %24
  %35 = getelementptr inbounds nuw %struct.slurm_msg, ptr %11, i32 0, i32 16
  %36 = load i16, ptr %35, align 4
  %37 = zext i16 %36 to i32
  switch i32 %37, label %50 [
    i32 8001, label %38
  ]

38:                                               ; preds = %34
  %39 = getelementptr inbounds nuw %struct.slurm_msg, ptr %11, i32 0, i32 16
  %40 = load i16, ptr %39, align 4
  %41 = zext i16 %40 to i32
  %42 = getelementptr inbounds nuw %struct.slurm_msg, ptr %11, i32 0, i32 13
  %43 = load ptr, ptr %42, align 8
  %44 = call i32 @slurm_get_return_code(i32 noundef %41, ptr noundef %43)
  store i32 %44, ptr %9, align 4
  %45 = icmp ne i32 %44, 0
  br i1 %45, label %46, label %49

46:                                               ; preds = %38
  %47 = load i32, ptr %9, align 4
  %48 = call ptr @__errno_location() #10
  store i32 %47, ptr %48, align 4
  store i32 -1, ptr %9, align 4
  br label %49

49:                                               ; preds = %46, %38
  br label %52

50:                                               ; preds = %34
  %51 = call ptr @__errno_location() #10
  store i32 1000, ptr %51, align 4
  store i32 -1, ptr %9, align 4
  br label %52

52:                                               ; preds = %50, %49
  br label %53

53:                                               ; preds = %52, %33
  call void @slurm_free_msg_members(ptr noundef %11)
  %54 = load i32, ptr %9, align 4
  call void @llvm.lifetime.end.p0(i64 96, ptr %12) #9
  call void @llvm.lifetime.end.p0(i64 424, ptr %11) #9
  call void @llvm.lifetime.end.p0(i64 424, ptr %10) #9
  call void @llvm.lifetime.end.p0(i64 4, ptr %9) #9
  ret i32 %54
}

; Function Attrs: nounwind uwtable
define internal i32 @_persist_fed_job_unlock(ptr noundef %0, i32 noundef %1, i32 noundef %2) #0 {
  %4 = alloca ptr, align 8
  %5 = alloca i32, align 4
  %6 = alloca i32, align 4
  store ptr %0, ptr %4, align 8
  store i32 %1, ptr %5, align 4
  store i32 %2, ptr %6, align 4
  %7 = load ptr, ptr %4, align 8
  %8 = load i32, ptr %5, align 4
  %9 = load i32, ptr %6, align 4
  %10 = call i32 @_persist_fed_job_lock_bool(ptr noundef %7, i32 noundef %8, i32 noundef %9, i1 noundef zeroext false)
  ret i32 %10
}

; Function Attrs: nounwind uwtable
define dso_local ptr @fed_mgr_get_cluster_by_id(i32 noundef %0) #0 {
  %2 = alloca i32, align 4
  %3 = alloca i32, align 4
  store i32 %0, ptr %2, align 4
  call void @llvm.lifetime.start.p0(i64 4, ptr %3) #9
  %4 = load i32, ptr %2, align 4
  store i32 %4, ptr %3, align 4
  %5 = load ptr, ptr @fed_mgr_fed_rec, align 8
  %6 = getelementptr inbounds nuw %struct.slurmdb_federation_rec_t, ptr %5, i32 0, i32 2
  %7 = load ptr, ptr %6, align 8
  %8 = call ptr @list_find_first(ptr noundef %7, ptr noundef @_find_sibling_by_id, ptr noundef %3)
  call void @llvm.lifetime.end.p0(i64 4, ptr %3) #9
  ret ptr %8
}

; Function Attrs: nounwind uwtable
define internal i32 @_job_unlock_spec_sibs(ptr noundef %0, i64 noundef %1) #0 {
  %3 = alloca ptr, align 8
  %4 = alloca i64, align 8
  %5 = alloca i32, align 4
  %6 = alloca ptr, align 8
  %7 = alloca i32, align 4
  store ptr %0, ptr %3, align 8
  store i64 %1, ptr %4, align 8
  call void @llvm.lifetime.start.p0(i64 4, ptr %5) #9
  %8 = load ptr, ptr @fed_mgr_cluster_rec, align 8
  %9 = getelementptr inbounds nuw %struct.slurmdb_cluster_rec, ptr %8, i32 0, i32 9
  %10 = getelementptr inbounds nuw %struct.slurmdb_cluster_fed_t, ptr %9, i32 0, i32 1
  %11 = load i32, ptr %10, align 8
  store i32 %11, ptr %5, align 4
  call void @llvm.lifetime.start.p0(i64 8, ptr %6) #9
  call void @llvm.lifetime.start.p0(i64 4, ptr %7) #9
  store i32 1, ptr %7, align 4
  br label %12

12:                                               ; preds = %46, %2
  %13 = load i64, ptr %4, align 8
  %14 = icmp ne i64 %13, 0
  br i1 %14, label %15, label %51

15:                                               ; preds = %12
  %16 = load i64, ptr %4, align 8
  %17 = and i64 %16, 1
  %18 = icmp ne i64 %17, 0
  br i1 %18, label %20, label %19

19:                                               ; preds = %15
  br label %46

20:                                               ; preds = %15
  %21 = load ptr, ptr @fed_mgr_cluster_rec, align 8
  %22 = getelementptr inbounds nuw %struct.slurmdb_cluster_rec, ptr %21, i32 0, i32 9
  %23 = getelementptr inbounds nuw %struct.slurmdb_cluster_fed_t, ptr %22, i32 0, i32 1
  %24 = load i32, ptr %23, align 8
  %25 = load i32, ptr %7, align 4
  %26 = icmp eq i32 %24, %25
  br i1 %26, label %27, label %33

27:                                               ; preds = %20
  %28 = load ptr, ptr %3, align 8
  %29 = getelementptr inbounds nuw %struct.job_record, ptr %28, i32 0, i32 53
  %30 = load i32, ptr %29, align 8
  %31 = load i32, ptr %5, align 4
  %32 = call i32 @fed_mgr_job_lock_unset(i32 noundef %30, i32 noundef %31)
  br label %45

33:                                               ; preds = %20
  %34 = load i32, ptr %7, align 4
  %35 = call ptr @fed_mgr_get_cluster_by_id(i32 noundef %34)
  store ptr %35, ptr %6, align 8
  %36 = icmp ne ptr %35, null
  br i1 %36, label %37, label %44

37:                                               ; preds = %33
  %38 = load ptr, ptr %6, align 8
  %39 = load ptr, ptr %3, align 8
  %40 = getelementptr inbounds nuw %struct.job_record, ptr %39, i32 0, i32 53
  %41 = load i32, ptr %40, align 8
  %42 = load i32, ptr %5, align 4
  %43 = call i32 @_persist_fed_job_unlock(ptr noundef %38, i32 noundef %41, i32 noundef %42)
  br label %44

44:                                               ; preds = %37, %33
  br label %45

45:                                               ; preds = %44, %27
  br label %46

46:                                               ; preds = %45, %19
  %47 = load i64, ptr %4, align 8
  %48 = lshr i64 %47, 1
  store i64 %48, ptr %4, align 8
  %49 = load i32, ptr %7, align 4
  %50 = add nsw i32 %49, 1
  store i32 %50, ptr %7, align 4
  br label %12, !llvm.loop !30

51:                                               ; preds = %12
  call void @llvm.lifetime.end.p0(i64 4, ptr %7) #9
  call void @llvm.lifetime.end.p0(i64 8, ptr %6) #9
  call void @llvm.lifetime.end.p0(i64 4, ptr %5) #9
  ret i32 0
}