; Function Attrs: nounwind uwtable
define internal fastcc void @_job_unlock_spec_sibs(ptr noundef readonly captures(none) %0, i64 noundef %1) unnamed_addr #0 {
  %3 = alloca %struct.slurm_msg, align 8
  %4 = alloca %struct.slurm_msg, align 8
  %5 = alloca %struct.sib_msg_t, align 8
  %6 = alloca i32, align 4
  %7 = load ptr, ptr @fed_mgr_cluster_rec, align 8
  %8 = getelementptr inbounds nuw i8, ptr %7, i64 192
  %9 = load i32, ptr %8, align 8
  %.not14 = icmp eq i64 %1, 0
  br i1 %.not14, label %._crit_edge, label %.lr.ph

.lr.ph:                                           ; preds = %2
  %10 = getelementptr inbounds nuw i8, ptr %0, i64 392
  %11 = getelementptr inbounds nuw i8, ptr %5, i64 44
  %12 = getelementptr inbounds nuw i8, ptr %3, i64 212
  %13 = getelementptr inbounds nuw i8, ptr %3, i64 214
  %14 = getelementptr inbounds nuw i8, ptr %3, i64 200
  %15 = getelementptr inbounds nuw i8, ptr %4, i64 212
  %16 = getelementptr inbounds nuw i8, ptr %4, i64 200
  br label %17

17:                                               ; preds = %.lr.ph, %43
  %.016 = phi i32 [ 1, %.lr.ph ], [ %45, %43 ]
  %.01015 = phi i64 [ %1, %.lr.ph ], [ %44, %43 ]
  %18 = and i64 %.01015, 1
  %.not12 = icmp eq i64 %18, 0
  br i1 %.not12, label %43, label %19

19:                                               ; preds = %17
  %20 = load ptr, ptr @fed_mgr_cluster_rec, align 8
  %21 = getelementptr inbounds nuw i8, ptr %20, i64 192
  %22 = load i32, ptr %21, align 8
  %23 = icmp eq i32 %22, %.016
  br i1 %23, label %24, label %27

24:                                               ; preds = %19
  %25 = load i32, ptr %10, align 8
  %26 = call i32 @fed_mgr_job_lock_unset(i32 noundef %25, i32 noundef %9)
  br label %43

27:                                               ; preds = %19
  call void @llvm.lifetime.start.p0(i64 4, ptr nonnull %6) #16
  store i32 %.016, ptr %6, align 4
  %28 = load ptr, ptr @fed_mgr_fed_rec, align 8
  %29 = getelementptr inbounds nuw i8, ptr %28, i64 16
  %30 = load ptr, ptr %29, align 8
  %31 = call ptr @list_find_first(ptr noundef %30, ptr noundef nonnull @_find_sibling_by_id, ptr noundef nonnull %6) #16
  call void @llvm.lifetime.end.p0(i64 4, ptr nonnull %6) #16
  %.not13 = icmp eq ptr %31, null
  br i1 %.not13, label %43, label %32

32:                                               ; preds = %27
  %33 = load i32, ptr %10, align 8
  call void @llvm.lifetime.start.p0(i64 424, ptr nonnull %3) #16
  call void @llvm.lifetime.start.p0(i64 424, ptr nonnull %4) #16
  call void @slurm_msg_t_init(ptr noundef nonnull %3) #16
  call void @llvm.lifetime.start.p0(i64 96, ptr nonnull %5) #16
  call void @llvm.memset.p0.i64(ptr noundef nonnull align 8 dereferenceable(96) %5, i8 0, i64 96, i1 false)
  store i32 %33, ptr %11, align 4
  store i32 %9, ptr %5, align 8
  store i16 4504, ptr %12, align 4
  %34 = getelementptr inbounds nuw i8, ptr %31, i64 304
  %35 = load i16, ptr %34, align 8
  store i16 %35, ptr %13, align 2
  store ptr %5, ptr %14, align 8
  %36 = call fastcc i32 @_send_recv_msg(ptr noundef nonnull %31, ptr noundef %3, ptr noundef %4)
  %.not.i.i = icmp eq i32 %36, 0
  br i1 %.not.i.i, label %37, label %_persist_fed_job_unlock.exit

37:                                               ; preds = %32
  %38 = load i16, ptr %15, align 4
  %cond.i.i = icmp eq i16 %38, 8001
  br i1 %cond.i.i, label %39, label %.sink.split.i.i

39:                                               ; preds = %37
  %40 = load ptr, ptr %16, align 8
  %41 = call i32 @slurm_get_return_code(i32 noundef 8001, ptr noundef %40) #16
  %.not8.i.i = icmp eq i32 %41, 0
  br i1 %.not8.i.i, label %_persist_fed_job_unlock.exit, label %.sink.split.i.i

.sink.split.i.i:                                  ; preds = %39, %37
  %.sink.i.i = phi i32 [ %41, %39 ], [ 1000, %37 ]
  %42 = tail call ptr @__errno_location() #17
  store i32 %.sink.i.i, ptr %42, align 4
  br label %_persist_fed_job_unlock.exit

_persist_fed_job_unlock.exit:                     ; preds = %32, %39, %.sink.split.i.i
  call void @slurm_free_msg_members(ptr noundef nonnull %4) #16
  call void @llvm.lifetime.end.p0(i64 96, ptr nonnull %5) #16
  call void @llvm.lifetime.end.p0(i64 424, ptr nonnull %4) #16
  call void @llvm.lifetime.end.p0(i64 424, ptr nonnull %3) #16
  br label %43

43:                                               ; preds = %24, %_persist_fed_job_unlock.exit, %27, %17
  %44 = lshr i64 %.01015, 1
  %45 = add nuw nsw i32 %.016, 1
  %.not = icmp ult i64 %.01015, 2
  br i1 %.not, label %._crit_edge, label %17, !llvm.loop !36

._crit_edge:                                      ; preds = %43, %2
  ret void
}